; Function Attrs: mustprogress nounwind uwtable
define hidden void @_ZN20ShenandoahHeapRegion19oop_iterate_objectsEP17OopIterateClosure(ptr nocapture noundef nonnull readonly align 8 dereferenceable(96) %0, ptr noundef %1) local_unnamed_addr #0 align 2 {
  %3 = getelementptr inbounds i8, ptr %0, i64 8
  %4 = load ptr, ptr %3, align 8
  %5 = getelementptr inbounds i8, ptr %0, i64 48
  %6 = load ptr, ptr %5, align 8
  %7 = icmp ult ptr %4, %6
  br i1 %7, label %.lr.ph, label %._crit_edge

.lr.ph:                                           ; preds = %2, %_ZN7oopDesc16oop_iterate_sizeI17OopIterateClosureEEmPT_.exit
  %.07 = phi ptr [ %68, %_ZN7oopDesc16oop_iterate_sizeI17OopIterateClosureEEmPT_.exit ], [ %4, %2 ]
  %8 = load i8, ptr @UseCompressedClassPointers, align 1
  %9 = trunc i8 %8 to i1
  %10 = getelementptr inbounds i8, ptr %.07, i64 8
  br i1 %9, label %11, label %21

11:                                               ; preds = %.lr.ph
  %12 = load i32, ptr %10, align 8
  %13 = load ptr, ptr @_ZN23CompressedKlassPointers5_baseE, align 8
  %14 = load i32, ptr @_ZN23CompressedKlassPointers6_shiftE, align 4
  %15 = ptrtoint ptr %13 to i64
  %16 = zext i32 %12 to i64
  %17 = zext nneg i32 %14 to i64
  %18 = shl i64 %16, %17
  %19 = add i64 %18, %15
  %20 = inttoptr i64 %19 to ptr
  br label %_ZNK7oopDesc5klassEv.exit.i

21:                                               ; preds = %.lr.ph
  %22 = load ptr, ptr %10, align 8
  br label %_ZNK7oopDesc5klassEv.exit.i

_ZNK7oopDesc5klassEv.exit.i:                      ; preds = %21, %11
  %.0.i.i = phi ptr [ %20, %11 ], [ %22, %21 ]
  %23 = getelementptr inbounds i8, ptr %.0.i.i, i64 8
  %24 = load i32, ptr %23, align 8
  %25 = icmp sgt i32 %24, 0
  br i1 %25, label %26, label %36

26:                                               ; preds = %_ZNK7oopDesc5klassEv.exit.i
  %27 = and i32 %24, 1
  %.not.i.i = icmp eq i32 %27, 0
  br i1 %.not.i.i, label %28, label %31

28:                                               ; preds = %26
  %29 = lshr i32 %24, 3
  %30 = zext nneg i32 %29 to i64
  br label %_ZN7oopDesc16oop_iterate_sizeI17OopIterateClosureEEmPT_.exit

31:                                               ; preds = %26
  %32 = load ptr, ptr %.0.i.i, align 8
  %33 = getelementptr inbounds i8, ptr %32, i64 256
  %34 = load ptr, ptr %33, align 8
  %35 = tail call noundef i64 %34(ptr noundef nonnull align 8 dereferenceable(196) %.0.i.i, ptr noundef nonnull %.07) #18
  br label %_ZN7oopDesc16oop_iterate_sizeI17OopIterateClosureEEmPT_.exit

36:                                               ; preds = %_ZNK7oopDesc5klassEv.exit.i
  %37 = icmp slt i32 %24, 0
  br i1 %37, label %38, label %58

38:                                               ; preds = %36
  %39 = select i1 %9, i64 12, i64 16
  %40 = getelementptr inbounds i8, ptr %.07, i64 %39
  %41 = load i32, ptr %40, align 4
  %42 = sext i32 %41 to i64
  %43 = and i32 %24, 63
  %44 = zext nneg i32 %43 to i64
  %45 = shl i64 %42, %44
  %46 = lshr i32 %24, 16
  %47 = and i32 %46, 255
  %48 = zext nneg i32 %47 to i64
  %49 = add i64 %45, %48
  %50 = load i32, ptr @MinObjAlignmentInBytes, align 4
  %51 = add nsw i32 %50, -1
  %52 = sext i32 %51 to i64
  %53 = add i64 %49, %52
  %54 = sub i32 0, %50
  %55 = sext i32 %54 to i64
  %56 = and i64 %53, %55
  %57 = lshr i64 %56, 3
  br label %_ZN7oopDesc16oop_iterate_sizeI17OopIterateClosureEEmPT_.exit

58:                                               ; preds = %36
  %59 = load ptr, ptr %.0.i.i, align 8
  %60 = getelementptr inbounds i8, ptr %59, i64 256
  %61 = load ptr, ptr %60, align 8
  %62 = tail call noundef i64 %61(ptr noundef nonnull align 8 dereferenceable(196) %.0.i.i, ptr noundef nonnull %.07) #18
  br label %_ZN7oopDesc16oop_iterate_sizeI17OopIterateClosureEEmPT_.exit

_ZN7oopDesc16oop_iterate_sizeI17OopIterateClosureEEmPT_.exit: ; preds = %28, %31, %38, %58
  %.0.i4.i = phi i64 [ %35, %31 ], [ %30, %28 ], [ %57, %38 ], [ %62, %58 ]
  %63 = getelementptr inbounds i8, ptr %.0.i.i, i64 12
  %64 = load i32, ptr %63, align 4
  %65 = sext i32 %64 to i64
  %66 = getelementptr inbounds [7 x ptr], ptr @_ZN21OopOopIterateDispatchI17OopIterateClosureE6_tableE, i64 0, i64 %65
  %67 = load ptr, ptr %66, align 8
  tail call void %67(ptr noundef %1, ptr noundef nonnull %.07, ptr noundef nonnull %.0.i.i) #18
  %68 = getelementptr inbounds ptr, ptr %.07, i64 %.0.i4.i
  %69 = icmp ult ptr %68, %6
  br i1 %69, label %.lr.ph, label %._crit_edge, !llvm.loop !8

._crit_edge:                                      ; preds = %_ZN7oopDesc16oop_iterate_sizeI17OopIterateClosureEEmPT_.exit, %2
  ret void
}